target datalayout = "e-m:e-p270:32:32-p271:32:32-p272:64:64-i64:64-i128:128-f80:128-n8:16:32:64-S128"
target triple = "x86_64-pc-linux-gnu"

%struct.pmix_list_t = type { %struct.pmix_object_t, %struct.pmix_list_item_t, i64 }
%struct.pmix_object_t = type { %union.pthread_mutex_t, ptr, i32, %struct.pmix_tma }
%union.pthread_mutex_t = type { %struct.__pthread_mutex_s }
%struct.__pthread_mutex_s = type { i32, i32, i32, i32, i32, i16, i16, %struct.__pthread_internal_list }
%struct.__pthread_internal_list = type { ptr, ptr }
%struct.pmix_tma = type { ptr, ptr, ptr, ptr, ptr, ptr, ptr, ptr }
%struct.pmix_list_item_t = type { %struct.pmix_object_t, ptr, ptr, i32 }
%struct.prte_process_info_t = type { %struct.pmix_proc, %struct.pmix_proc, ptr, %struct.pmix_proc, i32, i32, i32, ptr, ptr, i32, i8, ptr, i16, ptr, ptr, i8, ptr, i8 }
%struct.pmix_proc = type { [256 x i8], i32 }
%struct.pmix_output_desc_t = type { i8, i8, i32, i8, i32, ptr, ptr, i32, ptr, i32, i8, i8, i8, i8, ptr, i32, i32 }
%struct.prte_rml_base_t = type { i32, i32, i32, i32, %struct.pmix_list_t, %struct.pmix_list_t, i32, %struct.pmix_list_t, i32, i8 }

@bucket = internal global ptr null, align 8
@.str.5 = private unnamed_addr constant [37 x i8] c"PRTE ERROR: %s in file %s at line %d\00", align 1
@.str.6 = private unnamed_addr constant [8 x i8] c"prted.c\00", align 1
@prte_process_info = external global %struct.prte_process_info_t, align 8
@pmix_output_info = external global [0 x %struct.pmix_output_desc_t], align 8
@prte_rml_base = external global %struct.prte_rml_base_t, align 8
@.str.31 = private unnamed_addr constant [37 x i8] c"PMIX ERROR: %s in file %s at line %d\00", align 1
@node_regex_waiting = internal global i8 0, align 1
@.str.35 = private unnamed_addr constant [26 x i8] c"RML-SEND(%s:%d): %s:%s:%d\00", align 1
@ncollected = internal global i32 0, align 4
@mybucket = internal global ptr null, align 8
@__func__.report_prted = private unnamed_addr constant [13 x i8] c"report_prted\00", align 1

; Function Attrs: inlinehint nounwind uwtable
define internal i64 @pmix_list_get_size(ptr noundef %0) #6 {
  %2 = alloca ptr, align 8
  store ptr %0, ptr %2, align 8, !tbaa !147
  %3 = load ptr, ptr %2, align 8, !tbaa !147
  %4 = getelementptr inbounds nuw %struct.pmix_list_t, ptr %3, i32 0, i32 2
  %5 = load volatile i64, ptr %4, align 8, !tbaa !149
  ret i64 %5
}

; Function Attrs: nounwind uwtable
define internal void @report_prted() #0 {
  %1 = alloca i32, align 4
  %2 = alloca i32, align 4
  call void @llvm.lifetime.start.p0(i64 4, ptr %1) #12
  call void @llvm.lifetime.start.p0(i64 4, ptr %2) #12
  %3 = call i64 @pmix_list_get_size(ptr noundef getelementptr inbounds nuw (%struct.prte_rml_base_t, ptr @prte_rml_base, i32 0, i32 7))
  %4 = add i64 %3, 1
  %5 = trunc i64 %4 to i32
  store i32 %5, ptr %1, align 4, !tbaa !4
  %6 = load i32, ptr %1, align 4, !tbaa !4
  %7 = load i32, ptr @ncollected, align 4, !tbaa !4
  %8 = icmp eq i32 %6, %7
  br i1 %8, label %9, label %76

9:                                                ; preds = %0
  %10 = load ptr, ptr @mybucket, align 8, !tbaa !16
  %11 = icmp ne ptr null, %10
  br i1 %11, label %12, label %76

12:                                               ; preds = %9
  %13 = load i8, ptr @node_regex_waiting, align 1, !tbaa !34, !range !36, !noundef !37
  %14 = trunc i8 %13 to i1
  br i1 %14, label %76, label %15

15:                                               ; preds = %12
  %16 = load ptr, ptr @mybucket, align 8, !tbaa !16
  %17 = load ptr, ptr @bucket, align 8, !tbaa !16
  %18 = call i32 @PMIx_Data_copy_payload(ptr noundef %16, ptr noundef %17)
  store i32 %18, ptr %2, align 4, !tbaa !4
  %19 = load i32, ptr %2, align 4, !tbaa !4
  %20 = icmp ne i32 0, %19
  br i1 %20, label %21, label %31

21:                                               ; preds = %15
  br label %22

22:                                               ; preds = %21
  %23 = load i32, ptr %2, align 4, !tbaa !4
  %24 = icmp ne i32 -2, %23
  br i1 %24, label %25, label %28

25:                                               ; preds = %22
  %26 = load i32, ptr %2, align 4, !tbaa !4
  %27 = call ptr @PMIx_Error_string(i32 noundef %26)
  call void (i32, ptr, ...) @pmix_output(i32 noundef 0, ptr noundef @.str.31, ptr noundef %27, ptr noundef @.str.6, i32 noundef 905)
  br label %28

28:                                               ; preds = %25, %22
  br label %29

29:                                               ; preds = %28
  br label %30

30:                                               ; preds = %29
  br label %31

31:                                               ; preds = %30, %15
  br label %32

32:                                               ; preds = %31
  %33 = load ptr, ptr @bucket, align 8, !tbaa !16
  call void @PMIx_Data_buffer_release(ptr noundef %33)
  store ptr null, ptr @bucket, align 8, !tbaa !16
  br label %34

34:                                               ; preds = %32
  br label %35

35:                                               ; preds = %34
  br label %36

36:                                               ; preds = %35
  %37 = load i32, ptr @prte_rml_base, align 8, !tbaa !70
  %38 = icmp sge i32 %37, 0
  br i1 %38, label %39, label %53

39:                                               ; preds = %36
  %40 = load i32, ptr @prte_rml_base, align 8, !tbaa !70
  %41 = icmp slt i32 %40, 64
  br i1 %41, label %42, label %53

42:                                               ; preds = %39
  %43 = load i32, ptr @prte_rml_base, align 8, !tbaa !70
  %44 = sext i32 %43 to i64
  %45 = getelementptr inbounds [0 x %struct.pmix_output_desc_t], ptr @pmix_output_info, i64 0, i64 %44
  %46 = getelementptr inbounds nuw %struct.pmix_output_desc_t, ptr %45, i32 0, i32 2
  %47 = load i32, ptr %46, align 4, !tbaa !65
  %48 = icmp sge i32 %47, 2
  br i1 %48, label %49, label %53

49:                                               ; preds = %42
  %50 = load i32, ptr @prte_rml_base, align 8, !tbaa !70
  %51 = load i32, ptr getelementptr inbounds nuw (%struct.pmix_proc, ptr getelementptr inbounds nuw (%struct.prte_process_info_t, ptr @prte_process_info, i32 0, i32 3), i32 0, i32 1), align 8, !tbaa !79
  %52 = call ptr @pmix_util_print_rank(i32 noundef %51)
  call void (i32, ptr, ...) @pmix_output(i32 noundef %50, ptr noundef @.str.35, ptr noundef %52, i32 noundef 10, ptr noundef @.str.6, ptr noundef @__func__.report_prted, i32 noundef 910)
  br label %53

53:                                               ; preds = %49, %42, %39, %36
  %54 = load i32, ptr getelementptr inbounds nuw (%struct.pmix_proc, ptr getelementptr inbounds nuw (%struct.prte_process_info_t, ptr @prte_process_info, i32 0, i32 3), i32 0, i32 1), align 8, !tbaa !79
  %55 = load ptr, ptr @mybucket, align 8, !tbaa !16
  %56 = call i32 @prte_rml_send_buffer_nb(i32 noundef %54, ptr noundef %55, i32 noundef 10)
  store i32 %56, ptr %2, align 4, !tbaa !4
  br label %57

57:                                               ; preds = %53
  br label %58

58:                                               ; preds = %57
  %59 = load i32, ptr %2, align 4, !tbaa !4
  %60 = icmp ne i32 0, %59
  br i1 %60, label %61, label %75

61:                                               ; preds = %58
  br label %62

62:                                               ; preds = %61
  %63 = load i32, ptr %2, align 4, !tbaa !4
  %64 = icmp ne i32 -43, %63
  br i1 %64, label %65, label %68

65:                                               ; preds = %62
  %66 = load i32, ptr %2, align 4, !tbaa !4
  %67 = call ptr @prte_strerror(i32 noundef %66)
  call void (i32, ptr, ...) @pmix_output(i32 noundef 0, ptr noundef @.str.5, ptr noundef %67, ptr noundef @.str.6, i32 noundef 912)
  br label %68

68:                                               ; preds = %65, %62
  br label %69

69:                                               ; preds = %68
  br label %70

70:                                               ; preds = %69
  br label %71

71:                                               ; preds = %70
  %72 = load ptr, ptr @mybucket, align 8, !tbaa !16
  call void @PMIx_Data_buffer_release(ptr noundef %72)
  store ptr null, ptr @mybucket, align 8, !tbaa !16
  br label %73

73:                                               ; preds = %71
  br label %74

74:                                               ; preds = %73
  br label %75

75:                                               ; preds = %74, %58
  br label %76

76:                                               ; preds = %75, %12, %9, %0
  call void @llvm.lifetime.end.p0(i64 4, ptr %2) #12
  call void @llvm.lifetime.end.p0(i64 4, ptr %1) #12
  ret void
}