; Function Attrs: nounwind uwtable
define internal fastcc void @report_prted() unnamed_addr #0 {
  %1 = load volatile i64, ptr getelementptr inbounds nuw (i8, ptr @prte_rml_base, i64 832), align 8, !tbaa !119
  %2 = trunc i64 %1 to i32
  %3 = add i32 %2, 1
  %4 = load i32, ptr @ncollected, align 4, !tbaa !4
  %5 = icmp eq i32 %3, %4
  %6 = load ptr, ptr @mybucket, align 8
  %7 = icmp ne ptr %6, null
  %or.cond = select i1 %5, i1 %7, i1 false
  br i1 %or.cond, label %8, label %35

8:                                                ; preds = %0
  %9 = load i8, ptr @node_regex_waiting, align 1, !tbaa !35, !range !37, !noundef !38
  %10 = trunc nuw i8 %9 to i1
  br i1 %10, label %35, label %11

11:                                               ; preds = %8
  %12 = load ptr, ptr @bucket, align 8, !tbaa !14
  %13 = tail call i32 @PMIx_Data_copy_payload(ptr noundef nonnull %6, ptr noundef %12) #19
  switch i32 %13, label %14 [
    i32 -2, label %16
    i32 0, label %16
  ]

14:                                               ; preds = %11
  %15 = tail call ptr @PMIx_Error_string(i32 noundef %13) #19
  tail call void (i32, ptr, ...) @pmix_output(i32 noundef 0, ptr noundef nonnull @.str.31, ptr noundef %15, ptr noundef nonnull @.str.6, i32 noundef 905) #19
  br label %16

16:                                               ; preds = %11, %11, %14
  %17 = load ptr, ptr @bucket, align 8, !tbaa !14
  tail call void @PMIx_Data_buffer_release(ptr noundef %17) #19
  store ptr null, ptr @bucket, align 8, !tbaa !14
  %18 = load i32, ptr @prte_rml_base, align 8, !tbaa !69
  %or.cond3 = icmp ult i32 %18, 64
  br i1 %or.cond3, label %19, label %27

19:                                               ; preds = %16
  %20 = zext nneg i32 %18 to i64
  %21 = getelementptr inbounds nuw [0 x %struct.pmix_output_desc_t], ptr @pmix_output_info, i64 0, i64 %20, i32 2
  %22 = load i32, ptr %21, align 4, !tbaa !64
  %23 = icmp sgt i32 %22, 1
  br i1 %23, label %24, label %27

24:                                               ; preds = %19
  %25 = load i32, ptr getelementptr inbounds nuw (i8, ptr @prte_process_info, i64 784), align 8, !tbaa !78
  %26 = tail call ptr @pmix_util_print_rank(i32 noundef %25) #19
  tail call void (i32, ptr, ...) @pmix_output(i32 noundef %18, ptr noundef nonnull @.str.35, ptr noundef %26, i32 noundef 10, ptr noundef nonnull @.str.6, ptr noundef nonnull @__func__.report_prted, i32 noundef 910) #19
  br label %27

27:                                               ; preds = %24, %19, %16
  %28 = load i32, ptr getelementptr inbounds nuw (i8, ptr @prte_process_info, i64 784), align 8, !tbaa !78
  %29 = load ptr, ptr @mybucket, align 8, !tbaa !14
  %30 = tail call i32 @prte_rml_send_buffer_nb(i32 noundef %28, ptr noundef %29, i32 noundef 10) #19
  switch i32 %30, label %31 [
    i32 0, label %35
    i32 -43, label %33
  ]

31:                                               ; preds = %27
  %32 = tail call ptr @prte_strerror(i32 noundef %30) #19
  tail call void (i32, ptr, ...) @pmix_output(i32 noundef 0, ptr noundef nonnull @.str.5, ptr noundef %32, ptr noundef nonnull @.str.6, i32 noundef 912) #19
  br label %33

33:                                               ; preds = %27, %31
  %34 = load ptr, ptr @mybucket, align 8, !tbaa !14
  tail call void @PMIx_Data_buffer_release(ptr noundef %34) #19
  store ptr null, ptr @mybucket, align 8, !tbaa !14
  br label %35

35:                                               ; preds = %27, %33, %8, %0
  ret void
}